target datalayout = "e-m:e-p270:32:32-p271:32:32-p272:64:64-i64:64-i128:128-f80:128-n8:16:32:64-S128"
target triple = "x86_64-pc-linux-gnu"

%struct.pointf_s = type { double, double }
%struct.Agrec_s = type { ptr, ptr }
%struct.Agobj_s = type { %struct.Agtag_s, ptr }
%struct.Agtag_s = type { i32, i64 }
%struct.boxf = type { %struct.pointf_s, %struct.pointf_s }
%struct.Agnodeinfo_t = type { %struct.Agrec_s, ptr, ptr, %struct.pointf_s, double, double, %struct.boxf, double, double, double, double, double, ptr, ptr, ptr, i8, i8, i8, i8, i32, i32, i32, ptr, double, i8, i8, ptr, ptr, i8, i64, i8, i8, i8, ptr, ptr, %struct.elist, %struct.elist, %struct.elist, %struct.elist, %struct.elist, ptr, i32, ptr, i32, i32, double, %struct.elist, %struct.elist, %struct.elist, %struct.elist, ptr, i32, i32, i32, [1 x double] }
%struct.elist = type { ptr, i64 }

; Function Attrs: nounwind uwtable
define internal zeroext i1 @spline_merge(ptr noundef %0) #0 {
  %2 = alloca ptr, align 8
  store ptr %0, ptr %2, align 8, !tbaa !68
  %3 = load ptr, ptr %2, align 8, !tbaa !68
  %4 = getelementptr inbounds nuw %struct.Agobj_s, ptr %3, i32 0, i32 1
  %5 = load ptr, ptr %4, align 8, !tbaa !22
  %6 = getelementptr inbounds nuw %struct.Agnodeinfo_t, ptr %5, i32 0, i32 28
  %7 = load i8, ptr %6, align 8, !tbaa !88
  %8 = sext i8 %7 to i32
  %9 = icmp eq i32 %8, 1
  br i1 %9, label %10, label %28

10:                                               ; preds = %1
  %11 = load ptr, ptr %2, align 8, !tbaa !68
  %12 = getelementptr inbounds nuw %struct.Agobj_s, ptr %11, i32 0, i32 1
  %13 = load ptr, ptr %12, align 8, !tbaa !22
  %14 = getelementptr inbounds nuw %struct.Agnodeinfo_t, ptr %13, i32 0, i32 35
  %15 = getelementptr inbounds nuw %struct.elist, ptr %14, i32 0, i32 1
  %16 = load i64, ptr %15, align 8, !tbaa !151
  %17 = icmp ugt i64 %16, 1
  br i1 %17, label %26, label %18

18:                                               ; preds = %10
  %19 = load ptr, ptr %2, align 8, !tbaa !68
  %20 = getelementptr inbounds nuw %struct.Agobj_s, ptr %19, i32 0, i32 1
  %21 = load ptr, ptr %20, align 8, !tbaa !22
  %22 = getelementptr inbounds nuw %struct.Agnodeinfo_t, ptr %21, i32 0, i32 36
  %23 = getelementptr inbounds nuw %struct.elist, ptr %22, i32 0, i32 1
  %24 = load i64, ptr %23, align 8, !tbaa !203
  %25 = icmp ugt i64 %24, 1
  br label %26

26:                                               ; preds = %18, %10
  %27 = phi i1 [ true, %10 ], [ %25, %18 ]
  br label %28

28:                                               ; preds = %26, %1
  %29 = phi i1 [ false, %1 ], [ %27, %26 ]
  ret i1 %29
}