; Function Attrs: mustprogress nofree norecurse nosync nounwind willreturn memory(read, inaccessiblemem: none) uwtable
define internal zeroext i1 @spline_merge(ptr noundef readonly captures(none) %0) #14 {
  %2 = getelementptr inbounds nuw i8, ptr %0, i64 16
  %3 = load ptr, ptr %2, align 8, !tbaa !16
  %4 = getelementptr inbounds nuw i8, ptr %3, i64 216
  %5 = load i8, ptr %4, align 8, !tbaa !62
  %6 = icmp eq i8 %5, 1
  br i1 %6, label %7, label %15

7:                                                ; preds = %1
  %8 = getelementptr inbounds nuw i8, ptr %3, i64 264
  %9 = load i64, ptr %8, align 8, !tbaa !72
  %10 = icmp ugt i64 %9, 1
  br i1 %10, label %15, label %11

11:                                               ; preds = %7
  %12 = getelementptr inbounds nuw i8, ptr %3, i64 280
  %13 = load i64, ptr %12, align 8, !tbaa !206
  %14 = icmp ugt i64 %13, 1
  br label %15

15:                                               ; preds = %7, %11, %1
  %16 = phi i1 [ false, %1 ], [ true, %7 ], [ %14, %11 ]
  ret i1 %16
}